; Function Attrs: mustprogress uwtable
define void @_Z27tsi_ssl_session_cache_unrefP21tsi_ssl_session_cache(ptr noundef %0) local_unnamed_addr #3 {
  %2 = getelementptr inbounds nuw i8, ptr %0, i64 8
  %3 = atomicrmw sub ptr %2, i64 1 acq_rel, align 8
  %4 = icmp eq i64 %3, 1
  br i1 %4, label %5, label %_ZNK9grpc_core10RefCountedIN3tsi18SslSessionLRUCacheENS_19PolymorphicRefCountENS_11UnrefDeleteEE5UnrefEv.exit, !prof !28

5:                                                ; preds = %1
  %6 = load ptr, ptr %0, align 8, !tbaa !40
  %7 = getelementptr inbounds nuw i8, ptr %6, i64 8
  %8 = load ptr, ptr %7, align 8
  tail call void %8(ptr noundef nonnull align 8 dereferenceable(104) %0) #32
  br label %_ZNK9grpc_core10RefCountedIN3tsi18SslSessionLRUCacheENS_19PolymorphicRefCountENS_11UnrefDeleteEE5UnrefEv.exit

_ZNK9grpc_core10RefCountedIN3tsi18SslSessionLRUCacheENS_19PolymorphicRefCountENS_11UnrefDeleteEE5UnrefEv.exit: ; preds = %1, %5
  ret void
}